; Function Attrs: mustprogress nofree norecurse nosync nounwind willreturn memory(argmem: write) uwtable
define void @_ZN32pxrInternal_v0_24__pxrReserved__17HgiBufferBindDescC2Ev(ptr noundef nonnull writeonly align 8 captures(none) dereferenceable(85) initializes((0, 72), (76, 85)) %0) unnamed_addr #4 align 2 {
  %2 = getelementptr inbounds nuw i8, ptr %0, i64 76
  store i32 0, ptr %2, align 4
  %3 = getelementptr inbounds nuw i8, ptr %0, i64 80
  tail call void @llvm.memset.p0.i64(ptr noundef nonnull align 8 dereferenceable(72) %0, i8 0, i64 72, i1 false)
  store i32 129, ptr %3, align 8
  %4 = getelementptr inbounds nuw i8, ptr %0, i64 84
  store i8 0, ptr %4, align 4
  ret void
}